ARM GAS  C:\Users\DHEERA~1\AppData\Local\Temp\ccg8EIbU.s 			page 1


   1              		.syntax unified
   2              		.cpu cortex-m3
   3              		.fpu softvfp
   4              		.eabi_attribute 20, 1
   5              		.eabi_attribute 21, 1
   6              		.eabi_attribute 23, 3
   7              		.eabi_attribute 24, 1
   8              		.eabi_attribute 25, 1
   9              		.eabi_attribute 26, 1
  10              		.eabi_attribute 30, 1
  11              		.eabi_attribute 34, 1
  12              		.eabi_attribute 18, 4
  13              		.thumb
  14              		.syntax unified
  15              		.file	"fft_application.c"
  16              		.text
  17              	.Ltext0:
  18              		.cfi_sections	.debug_frame
  19              		.section	.text.fft_app,"ax",%progbits
  20              		.align	2
  21              		.global	fft_app
  22              		.thumb
  23              		.thumb_func
  24              		.type	fft_app, %function
  25              	fft_app:
  26              	.LFB119:
  27              		.file 1 "fft_application.c"
   1:fft_application.c **** #include "fft_application.h"
   2:fft_application.c **** #include <stdlib.h>
   3:fft_application.c **** #include "arm_math.h"
   4:fft_application.c **** #include "cfar.h"
   5:fft_application.c **** #include "project.h"
   6:fft_application.c **** 
   7:fft_application.c **** void fft_app(uint16 *adc_samples, int32 *fft_output, uint16 no_of_samples)
   8:fft_application.c **** {
  28              		.loc 1 8 0
  29              		.cfi_startproc
  30              		@ args = 0, pretend = 0, frame = 24
  31              		@ frame_needed = 0, uses_anonymous_args = 0
  32              	.LVL0:
  33 0000 2DE9F041 		push	{r4, r5, r6, r7, r8, lr}
  34              		.cfi_def_cfa_offset 24
  35              		.cfi_offset 4, -24
  36              		.cfi_offset 5, -20
  37              		.cfi_offset 6, -16
  38              		.cfi_offset 7, -12
  39              		.cfi_offset 8, -8
  40              		.cfi_offset 14, -4
  41 0004 86B0     		sub	sp, sp, #24
  42              		.cfi_def_cfa_offset 48
  43 0006 0546     		mov	r5, r0
  44 0008 0F46     		mov	r7, r1
  45 000a 1446     		mov	r4, r2
  46              	.LVL1:
   9:fft_application.c ****     int32 *fft_input = NULL; /**< Buffer for FFT input */
  10:fft_application.c ****     
  11:fft_application.c ****     arm_status status;
ARM GAS  C:\Users\DHEERA~1\AppData\Local\Temp\ccg8EIbU.s 			page 2


  12:fft_application.c ****     arm_rfft_instance_q31 fft_instance;
  13:fft_application.c ****     
  14:fft_application.c ****     status = arm_rfft_init_q31(&fft_instance, no_of_samples, 0, 1); /**< Initialize RFFT */
  47              		.loc 1 14 0
  48 000c 0123     		movs	r3, #1
  49 000e 0022     		movs	r2, #0
  50              	.LVL2:
  51 0010 2146     		mov	r1, r4
  52              	.LVL3:
  53 0012 6846     		mov	r0, sp
  54              	.LVL4:
  55 0014 FFF7FEFF 		bl	arm_rfft_init_q31
  56              	.LVL5:
  15:fft_application.c ****     if (status != ARM_MATH_SUCCESS)
  57              		.loc 1 15 0
  58 0018 98BB     		cbnz	r0, .L1
  16:fft_application.c ****     {
  17:fft_application.c ****         return;
  18:fft_application.c ****     }
  19:fft_application.c **** 
  20:fft_application.c ****     fft_input = (int32*)malloc(no_of_samples * sizeof(int32));
  59              		.loc 1 20 0
  60 001a A000     		lsls	r0, r4, #2
  61              	.LVL6:
  62 001c FFF7FEFF 		bl	malloc
  63              	.LVL7:
  21:fft_application.c ****     if (fft_input == NULL)
  64              		.loc 1 21 0
  65 0020 0646     		mov	r6, r0
  66 0022 70B3     		cbz	r0, .L1
  67 0024 0022     		movs	r2, #0
  68 0026 07E0     		b	.L3
  69              	.LVL8:
  70              	.L4:
  71              	.LBB2:
  22:fft_application.c ****     {
  23:fft_application.c ****         return;
  24:fft_application.c ****     }
  25:fft_application.c **** 
  26:fft_application.c ****     /**< Convert ADC values to signed Q31 format */
  27:fft_application.c ****     for (int i = 0; i < no_of_samples; i++)
  28:fft_application.c ****     {
  29:fft_application.c ****         fft_input[i] = ((int32)adc_samples[i] - 2048) << 19;
  72              		.loc 1 29 0 discriminator 3
  73 0028 35F81230 		ldrh	r3, [r5, r2, lsl #1]
  74 002c A3F50063 		sub	r3, r3, #2048
  75 0030 DB04     		lsls	r3, r3, #19
  76 0032 46F82230 		str	r3, [r6, r2, lsl #2]
  27:fft_application.c ****     {
  77              		.loc 1 27 0 discriminator 3
  78 0036 0132     		adds	r2, r2, #1
  79              	.LVL9:
  80              	.L3:
  27:fft_application.c ****     {
  81              		.loc 1 27 0 is_stmt 0 discriminator 1
  82 0038 A046     		mov	r8, r4
  83 003a A242     		cmp	r2, r4
ARM GAS  C:\Users\DHEERA~1\AppData\Local\Temp\ccg8EIbU.s 			page 3


  84 003c F4DB     		blt	.L4
  85              	.LBE2:
  30:fft_application.c ****     }
  31:fft_application.c **** 
  32:fft_application.c ****     arm_rfft_q31(&fft_instance, (q31_t*)fft_input, (q31_t*)fft_output); /**< Compute FFT */
  86              		.loc 1 32 0 is_stmt 1
  87 003e 3A46     		mov	r2, r7
  88              	.LVL10:
  89 0040 3146     		mov	r1, r6
  90 0042 6846     		mov	r0, sp
  91              	.LVL11:
  92 0044 FFF7FEFF 		bl	arm_rfft_q31
  93              	.LVL12:
  33:fft_application.c ****     free(fft_input);
  94              		.loc 1 33 0
  95 0048 3046     		mov	r0, r6
  96 004a FFF7FEFF 		bl	free
  97              	.LVL13:
  34:fft_application.c ****     
  35:fft_application.c ****     run_cfar((int32_t*)fft_output, no_of_samples); /**< Run CFAR detection */
  98              		.loc 1 35 0
  99 004e 2146     		mov	r1, r4
 100 0050 3846     		mov	r0, r7
 101 0052 FFF7FEFF 		bl	run_cfar
 102              	.LVL14:
 103              	.LBB3:
  36:fft_application.c **** 
  37:fft_application.c ****     uint8_t detectionFound = 0; /**< Flag to indicate detection */
  38:fft_application.c ****     for (int i = 0; i < no_of_samples; i++)
 104              		.loc 1 38 0
 105 0056 0023     		movs	r3, #0
 106 0058 08E0     		b	.L5
 107              	.LVL15:
 108              	.L8:
  39:fft_application.c ****     {
  40:fft_application.c ****         if (cfar_output[i])
 109              		.loc 1 40 0
 110 005a 0B4A     		ldr	r2, .L13
 111 005c D25C     		ldrb	r2, [r2, r3]	@ zero_extendqisi2
 112 005e 22B1     		cbz	r2, .L6
 113              	.LVL16:
  41:fft_application.c ****         {
  42:fft_application.c ****             detectionFound = 1;
  43:fft_application.c ****             led_red_Write(1); //new
 114              		.loc 1 43 0
 115 0060 0120     		movs	r0, #1
 116 0062 FFF7FEFF 		bl	led_red_Write
 117              	.LVL17:
  42:fft_application.c ****             led_red_Write(1); //new
 118              		.loc 1 42 0
 119 0066 0123     		movs	r3, #1
  44:fft_application.c ****             break;
 120              		.loc 1 44 0
 121 0068 03E0     		b	.L7
 122              	.LVL18:
 123              	.L6:
  38:fft_application.c ****     {
ARM GAS  C:\Users\DHEERA~1\AppData\Local\Temp\ccg8EIbU.s 			page 4


 124              		.loc 1 38 0 discriminator 2
 125 006a 0133     		adds	r3, r3, #1
 126              	.LVL19:
 127              	.L5:
  38:fft_application.c ****     {
 128              		.loc 1 38 0 is_stmt 0 discriminator 1
 129 006c 4345     		cmp	r3, r8
 130 006e F4DB     		blt	.L8
 131              	.LBE3:
  37:fft_application.c ****     for (int i = 0; i < no_of_samples; i++)
 132              		.loc 1 37 0 is_stmt 1
 133 0070 0023     		movs	r3, #0
 134              	.LVL20:
 135              	.L7:
  45:fft_application.c ****         }
  46:fft_application.c ****     }
  47:fft_application.c **** 
  48:fft_application.c ****     if (detectionFound)
 136              		.loc 1 48 0
 137 0072 1BB1     		cbz	r3, .L9
  49:fft_application.c ****     {
  50:fft_application.c ****         led_red_Write(1);  // Turn ON red LED
 138              		.loc 1 50 0
 139 0074 0120     		movs	r0, #1
 140 0076 FFF7FEFF 		bl	led_red_Write
 141              	.LVL21:
 142 007a 02E0     		b	.L1
 143              	.LVL22:
 144              	.L9:
  51:fft_application.c ****     }
  52:fft_application.c ****     else
  53:fft_application.c ****     {
  54:fft_application.c ****         led_red_Write(0);  // Turn OFF red LED
 145              		.loc 1 54 0
 146 007c 0020     		movs	r0, #0
 147 007e FFF7FEFF 		bl	led_red_Write
 148              	.LVL23:
 149              	.L1:
  55:fft_application.c ****     }
  56:fft_application.c **** }
 150              		.loc 1 56 0
 151 0082 06B0     		add	sp, sp, #24
 152              		.cfi_def_cfa_offset 24
 153              		@ sp needed
 154 0084 BDE8F081 		pop	{r4, r5, r6, r7, r8, pc}
 155              	.LVL24:
 156              	.L14:
 157              		.align	2
 158              	.L13:
 159 0088 00000000 		.word	cfar_output
 160              		.cfi_endproc
 161              	.LFE119:
 162              		.size	fft_app, .-fft_app
 163              		.comm	cfar_output,1024,4
 164              		.text
 165              	.Letext0:
 166              		.file 2 "d:\\psoc creator\\4.4\\psoc creator\\import\\gnu\\arm\\5.4.1\\arm-none-eabi\\include\\mac
ARM GAS  C:\Users\DHEERA~1\AppData\Local\Temp\ccg8EIbU.s 			page 5


 167              		.file 3 "d:\\psoc creator\\4.4\\psoc creator\\import\\gnu\\arm\\5.4.1\\arm-none-eabi\\include\\sys
 168              		.file 4 "Generated_Source\\PSoC5/cytypes.h"
 169              		.file 5 ".\\fft_application/arm_math.h"
 170              		.file 6 "Generated_Source\\PSoC5/core_cm3.h"
 171              		.file 7 "cfar.h"
 172              		.file 8 "Generated_Source\\PSoC5/led_red.h"
 173              		.file 9 "d:\\psoc creator\\4.4\\psoc creator\\import\\gnu\\arm\\5.4.1\\arm-none-eabi\\include\\std